target datalayout = "e-m:e-p270:32:32-p271:32:32-p272:64:64-i64:64-i128:128-f80:128-n8:16:32:64-S128"
target triple = "x86_64-pc-linux-gnu"

%struct.ident_t = type { i32, i32, i32, i32, ptr }
%"struct.std::_Vector_base.114" = type { %"struct.std::_Vector_base<int, std::allocator<int>>::_Vector_impl" }
%"struct.std::_Vector_base<int, std::allocator<int>>::_Vector_impl" = type { %"struct.std::_Vector_base<int, std::allocator<int>>::_Vector_impl_data" }
%"struct.std::_Vector_base<int, std::allocator<int>>::_Vector_impl_data" = type { ptr, ptr, ptr }

@1 = private unnamed_addr constant %struct.ident_t { i32 0, i32 514, i32 0, i32 22, ptr @0 }, align 8

; Function Attrs: noinline noreturn nounwind uwtable
define linkonce_odr hidden void @__clang_call_terminate(ptr noundef %0) #8 comdat {
  %2 = call ptr @__cxa_begin_catch(ptr %0) #7
  call void @_ZSt9terminatev() #29
  unreachable
}

; Function Attrs: inlinehint mustprogress nounwind uwtable
define linkonce_odr noundef nonnull align 4 dereferenceable(4) ptr @_ZSt3maxIiERKT_S2_S2_(ptr noundef nonnull align 4 dereferenceable(4) %0, ptr noundef nonnull align 4 dereferenceable(4) %1) #4 comdat {
  %3 = alloca ptr, align 8
  %4 = alloca ptr, align 8
  %5 = alloca ptr, align 8
  store ptr %0, ptr %4, align 8, !tbaa !187
  store ptr %1, ptr %5, align 8, !tbaa !187
  %6 = load ptr, ptr %4, align 8, !tbaa !187
  %7 = load i32, ptr %6, align 4, !tbaa !152
  %8 = load ptr, ptr %5, align 8, !tbaa !187
  %9 = load i32, ptr %8, align 4, !tbaa !152
  %10 = icmp slt i32 %7, %9
  br i1 %10, label %11, label %13

11:                                               ; preds = %2
  %12 = load ptr, ptr %5, align 8, !tbaa !187
  store ptr %12, ptr %3, align 8
  br label %15

13:                                               ; preds = %2
  %14 = load ptr, ptr %4, align 8, !tbaa !187
  store ptr %14, ptr %3, align 8
  br label %15

15:                                               ; preds = %13, %11
  %16 = load ptr, ptr %3, align 8
  ret ptr %16
}

; Function Attrs: mustprogress nounwind uwtable
define linkonce_odr noundef nonnull align 4 dereferenceable(4) ptr @_ZNSt6vectorIiSaIiEEixEm(ptr noundef nonnull align 8 dereferenceable(24) %0, i64 noundef %1) #0 comdat align 2 {
  %3 = alloca ptr, align 8
  %4 = alloca i64, align 8
  store ptr %0, ptr %3, align 8, !tbaa !537
  store i64 %1, ptr %4, align 8, !tbaa !181
  %5 = load ptr, ptr %3, align 8
  %6 = getelementptr inbounds nuw %"struct.std::_Vector_base.114", ptr %5, i32 0, i32 0
  %7 = getelementptr inbounds nuw %"struct.std::_Vector_base<int, std::allocator<int>>::_Vector_impl_data", ptr %6, i32 0, i32 0
  %8 = load ptr, ptr %7, align 8, !tbaa !539
  %9 = load i64, ptr %4, align 8, !tbaa !181
  %10 = getelementptr inbounds nuw i32, ptr %8, i64 %9
  ret ptr %10
}

; Function Attrs: alwaysinline norecurse nounwind uwtable
define internal void @_ZN8LightGBM4GBDT9RefitTreeEPKimm.omp_outlined(ptr noalias noundef %0, ptr noalias noundef %1, ptr noundef nonnull align 8 dereferenceable(8) %2, ptr noundef nonnull align 8 dereferenceable(8) %3, ptr noundef nonnull align 8 dereferenceable(24) %4, ptr noundef nonnull align 8 dereferenceable(8) %5) #25 personality ptr @__gxx_personality_v0 {
  %7 = alloca ptr, align 8
  %8 = alloca ptr, align 8
  %9 = alloca ptr, align 8
  %10 = alloca ptr, align 8
  %11 = alloca ptr, align 8
  %12 = alloca ptr, align 8
  %13 = alloca i32, align 4
  %14 = alloca i32, align 4
  %15 = alloca i32, align 4
  %16 = alloca i32, align 4
  %17 = alloca i32, align 4
  %18 = alloca i32, align 4
  %19 = alloca i32, align 4
  %20 = alloca i32, align 4
  %21 = alloca i32, align 4
  %22 = alloca i32, align 4
  %23 = alloca i64, align 8
  store ptr %0, ptr %7, align 8, !tbaa !187
  store ptr %1, ptr %8, align 8, !tbaa !187
  store ptr %2, ptr %9, align 8, !tbaa !217
  store ptr %3, ptr %10, align 8, !tbaa !217
  store ptr %4, ptr %11, align 8, !tbaa !537
  store ptr %5, ptr %12, align 8, !tbaa !677
  %24 = load ptr, ptr %9, align 8, !tbaa !217
  %25 = load ptr, ptr %10, align 8, !tbaa !217
  %26 = load ptr, ptr %11, align 8, !tbaa !537
  %27 = load ptr, ptr %12, align 8, !tbaa !677
  call void @llvm.lifetime.start.p0(i64 4, ptr %13) #7
  call void @llvm.lifetime.start.p0(i64 4, ptr %14) #7
  %28 = load i64, ptr %24, align 8, !tbaa !181
  %29 = trunc i64 %28 to i32
  store i32 %29, ptr %14, align 4, !tbaa !152
  call void @llvm.lifetime.start.p0(i64 4, ptr %15) #7
  %30 = load i32, ptr %14, align 4, !tbaa !152
  %31 = sub nsw i32 %30, 0
  %32 = sdiv i32 %31, 1
  %33 = sub nsw i32 %32, 1
  store i32 %33, ptr %15, align 4, !tbaa !152
  call void @llvm.lifetime.start.p0(i64 4, ptr %16) #7
  store i32 0, ptr %16, align 4, !tbaa !152
  call void @llvm.lifetime.end.p0(i64 4, ptr %16) #7
  %34 = load i32, ptr %14, align 4, !tbaa !152
  %35 = icmp slt i32 0, %34
  br i1 %35, label %36, label %96

36:                                               ; preds = %6
  call void @llvm.lifetime.start.p0(i64 4, ptr %17) #7
  store i32 0, ptr %17, align 4, !tbaa !152
  call void @llvm.lifetime.start.p0(i64 4, ptr %18) #7
  %37 = load i32, ptr %15, align 4, !tbaa !152
  store i32 %37, ptr %18, align 4, !tbaa !152
  call void @llvm.lifetime.start.p0(i64 4, ptr %19) #7
  store i32 1, ptr %19, align 4, !tbaa !152
  call void @llvm.lifetime.start.p0(i64 4, ptr %20) #7
  store i32 0, ptr %20, align 4, !tbaa !152
  call void @llvm.lifetime.start.p0(i64 4, ptr %21) #7
  %38 = load ptr, ptr %7, align 8
  %39 = load i32, ptr %38, align 4, !tbaa !152
  call void @__kmpc_for_static_init_4(ptr @1, i32 %39, i32 34, ptr %20, ptr %17, ptr %18, ptr %19, i32 1, i32 1)
  %40 = load i32, ptr %18, align 4, !tbaa !152
  %41 = load i32, ptr %15, align 4, !tbaa !152
  %42 = icmp sgt i32 %40, %41
  br i1 %42, label %43, label %45

43:                                               ; preds = %36
  %44 = load i32, ptr %15, align 4, !tbaa !152
  br label %47

45:                                               ; preds = %36
  %46 = load i32, ptr %18, align 4, !tbaa !152
  br label %47

47:                                               ; preds = %45, %43
  %48 = phi i32 [ %44, %43 ], [ %46, %45 ]
  store i32 %48, ptr %18, align 4, !tbaa !152
  %49 = load i32, ptr %17, align 4, !tbaa !152
  store i32 %49, ptr %13, align 4, !tbaa !152
  br label %50

50:                                               ; preds = %89, %47
  %51 = load i32, ptr %13, align 4, !tbaa !152
  %52 = load i32, ptr %18, align 4, !tbaa !152
  %53 = icmp sle i32 %51, %52
  br i1 %53, label %55, label %54

54:                                               ; preds = %50
  br label %92

55:                                               ; preds = %50
  %56 = load i32, ptr %13, align 4, !tbaa !152
  %57 = mul nsw i32 %56, 1
  %58 = add nsw i32 0, %57
  store i32 %58, ptr %21, align 4, !tbaa !152
  call void @llvm.lifetime.start.p0(i64 4, ptr %22) #7
  %59 = invoke i32 @omp_get_thread_num()
          to label %60 unwind label %97

60:                                               ; preds = %55
  store i32 %59, ptr %22, align 4, !tbaa !152
  call void @llvm.lifetime.start.p0(i64 8, ptr %23) #7
  store i64 0, ptr %23, align 8, !tbaa !181
  br label %61

61:                                               ; preds = %84, %60
  %62 = load i64, ptr %23, align 8, !tbaa !181
  %63 = load i64, ptr %25, align 8, !tbaa !181
  %64 = icmp ult i64 %62, %63
  br i1 %64, label %66, label %65

65:                                               ; preds = %61
  call void @llvm.lifetime.end.p0(i64 8, ptr %23) #7
  br label %87

66:                                               ; preds = %61
  %67 = load i32, ptr %22, align 4, !tbaa !152
  %68 = sext i32 %67 to i64
  %69 = call noundef nonnull align 4 dereferenceable(4) ptr @_ZNSt6vectorIiSaIiEEixEm(ptr noundef nonnull align 8 dereferenceable(24) %26, i64 noundef %68) #7
  %70 = load ptr, ptr %27, align 8, !tbaa !187
  %71 = load i32, ptr %21, align 4, !tbaa !152
  %72 = sext i32 %71 to i64
  %73 = load i64, ptr %25, align 8, !tbaa !181
  %74 = mul i64 %72, %73
  %75 = load i64, ptr %23, align 8, !tbaa !181
  %76 = add i64 %74, %75
  %77 = getelementptr inbounds nuw i32, ptr %70, i64 %76
  %78 = invoke noundef nonnull align 4 dereferenceable(4) ptr @_ZSt3maxIiERKT_S2_S2_(ptr noundef nonnull align 4 dereferenceable(4) %69, ptr noundef nonnull align 4 dereferenceable(4) %77)
          to label %79 unwind label %97

79:                                               ; preds = %66
  %80 = load i32, ptr %78, align 4, !tbaa !152
  %81 = load i32, ptr %22, align 4, !tbaa !152
  %82 = sext i32 %81 to i64
  %83 = call noundef nonnull align 4 dereferenceable(4) ptr @_ZNSt6vectorIiSaIiEEixEm(ptr noundef nonnull align 8 dereferenceable(24) %26, i64 noundef %82) #7
  store i32 %80, ptr %83, align 4, !tbaa !152
  br label %84

84:                                               ; preds = %79
  %85 = load i64, ptr %23, align 8, !tbaa !181
  %86 = add i64 %85, 1
  store i64 %86, ptr %23, align 8, !tbaa !181
  br label %61, !llvm.loop !994

87:                                               ; preds = %65
  call void @llvm.lifetime.end.p0(i64 4, ptr %22) #7
  br label %88

88:                                               ; preds = %87
  br label %89

89:                                               ; preds = %88
  %90 = load i32, ptr %13, align 4, !tbaa !152
  %91 = add nsw i32 %90, 1
  store i32 %91, ptr %13, align 4, !tbaa !152
  br label %50

92:                                               ; preds = %54
  br label %93

93:                                               ; preds = %92
  %94 = load ptr, ptr %7, align 8
  %95 = load i32, ptr %94, align 4, !tbaa !152
  call void @__kmpc_for_static_fini(ptr @1, i32 %95)
  call void @llvm.lifetime.end.p0(i64 4, ptr %21) #7
  call void @llvm.lifetime.end.p0(i64 4, ptr %20) #7
  call void @llvm.lifetime.end.p0(i64 4, ptr %19) #7
  call void @llvm.lifetime.end.p0(i64 4, ptr %18) #7
  call void @llvm.lifetime.end.p0(i64 4, ptr %17) #7
  br label %96

96:                                               ; preds = %93, %6
  call void @llvm.lifetime.end.p0(i64 4, ptr %15) #7
  call void @llvm.lifetime.end.p0(i64 4, ptr %14) #7
  call void @llvm.lifetime.end.p0(i64 4, ptr %13) #7
  ret void

97:                                               ; preds = %66, %55
  %98 = landingpad { ptr, i32 }
          catch ptr null
  %99 = extractvalue { ptr, i32 } %98, 0
  call void @__clang_call_terminate(ptr %99) #29
  unreachable
}