; Function Attrs: alwaysinline norecurse nounwind uwtable
define internal void @_ZN8LightGBM4GBDT9RefitTreeEPKimm.omp_outlined(ptr noalias noundef readonly captures(none) %0, ptr noalias readnone captures(none) %1, ptr noundef nonnull readonly align 8 captures(none) dereferenceable(8) %2, ptr noundef nonnull readonly align 8 captures(none) dereferenceable(8) %3, ptr noundef nonnull readonly align 8 captures(none) dereferenceable(24) %4, ptr noundef nonnull readonly align 8 captures(none) dereferenceable(8) %5) #25 personality ptr @__gxx_personality_v0 {
  %7 = alloca i32, align 4
  %8 = alloca i32, align 4
  %9 = alloca i32, align 4
  %10 = alloca i32, align 4
  %11 = load i64, ptr %2, align 8, !tbaa !223
  %12 = trunc i64 %11 to i32
  %13 = icmp sgt i32 %12, 0
  br i1 %13, label %14, label %37

14:                                               ; preds = %6
  %15 = add nsw i32 %12, -1
  call void @llvm.lifetime.start.p0(i64 4, ptr nonnull %7) #23
  store i32 0, ptr %7, align 4, !tbaa !174
  call void @llvm.lifetime.start.p0(i64 4, ptr nonnull %8) #23
  store i32 %15, ptr %8, align 4, !tbaa !174
  call void @llvm.lifetime.start.p0(i64 4, ptr nonnull %9) #23
  store i32 1, ptr %9, align 4, !tbaa !174
  call void @llvm.lifetime.start.p0(i64 4, ptr nonnull %10) #23
  store i32 0, ptr %10, align 4, !tbaa !174
  %16 = load i32, ptr %0, align 4, !tbaa !174
  call void @__kmpc_for_static_init_4(ptr nonnull @1, i32 %16, i32 34, ptr nonnull %10, ptr nonnull %7, ptr nonnull %8, ptr nonnull %9, i32 1, i32 1)
  %17 = load i32, ptr %8, align 4, !tbaa !174
  %18 = call i32 @llvm.smin.i32(i32 %17, i32 %15)
  store i32 %18, ptr %8, align 4, !tbaa !174
  %19 = load i32, ptr %7, align 4, !tbaa !174
  %.not22 = icmp sgt i32 %19, %18
  br i1 %.not22, label %._crit_edge26, label %.lr.ph25.preheader

.lr.ph25.preheader:                               ; preds = %14
  %20 = sext i32 %19 to i64
  br label %.lr.ph25

.lr.ph25:                                         ; preds = %.lr.ph25.preheader, %._crit_edge
  %indvars.iv = phi i64 [ %20, %.lr.ph25.preheader ], [ %indvars.iv.next, %._crit_edge ]
  %21 = call i32 @omp_get_thread_num()
  %22 = load i64, ptr %3, align 8, !tbaa !223
  %.not27 = icmp eq i64 %22, 0
  br i1 %.not27, label %._crit_edge, label %.lr.ph

.lr.ph:                                           ; preds = %.lr.ph25
  %23 = sext i32 %21 to i64
  %24 = load ptr, ptr %4, align 8, !tbaa !307
  %25 = getelementptr inbounds nuw i32, ptr %24, i64 %23
  %26 = load ptr, ptr %5, align 8, !tbaa !334
  %27 = mul i64 %22, %indvars.iv
  %28 = getelementptr i32, ptr %26, i64 %27
  %.promoted = load i32, ptr %25, align 4, !tbaa !174
  br label %31

._crit_edge:                                      ; preds = %31, %.lr.ph25
  %indvars.iv.next = add nsw i64 %indvars.iv, 1
  %29 = load i32, ptr %8, align 4, !tbaa !174
  %30 = sext i32 %29 to i64
  %.not.not = icmp slt i64 %indvars.iv, %30
  br i1 %.not.not, label %.lr.ph25, label %._crit_edge26

31:                                               ; preds = %.lr.ph, %31
  %32 = phi i32 [ %.promoted, %.lr.ph ], [ %35, %31 ]
  %.021 = phi i64 [ 0, %.lr.ph ], [ %36, %31 ]
  %33 = getelementptr i32, ptr %28, i64 %.021
  %34 = load i32, ptr %33, align 4, !tbaa !174
  %35 = call i32 @llvm.smax.i32(i32 %32, i32 %34)
  store i32 %35, ptr %25, align 4, !tbaa !174
  %36 = add nuw i64 %.021, 1
  %exitcond.not = icmp eq i64 %36, %22
  br i1 %exitcond.not, label %._crit_edge, label %31, !llvm.loop !642

._crit_edge26:                                    ; preds = %._crit_edge, %14
  call void @__kmpc_for_static_fini(ptr nonnull @1, i32 %16)
  call void @llvm.lifetime.end.p0(i64 4, ptr nonnull %10) #23
  call void @llvm.lifetime.end.p0(i64 4, ptr nonnull %9) #23
  call void @llvm.lifetime.end.p0(i64 4, ptr nonnull %8) #23
  call void @llvm.lifetime.end.p0(i64 4, ptr nonnull %7) #23
  br label %37

37:                                               ; preds = %._crit_edge26, %6
  ret void
}